Certificate:
    Data:
        Version: 3 (0x2)
        Serial Number:
            dc:5f:dc:9c:36:41:39:35:1f:5d:6f:49:3f:ed:55:f6
        Signature Algorithm: sha256WithRSAEncryption
        Issuer: CN=rasvpn
        Validity
            Not Before: Nov 22 14:33:00 2025 GMT
            Not After : Feb 25 14:33:00 2028 GMT
        Subject: CN=client
        Subject Public Key Info:
            Public Key Algorithm: rsaEncryption
                Public-Key: (2048 bit)
                Modulus:
                    00:b2:fa:cf:2b:be:61:d5:71:8a:d0:f4:f5:25:5f:
                    a9:10:fc:ff:69:f4:3a:39:f9:a4:39:37:65:da:1d:
                    5a:37:85:8b:04:4a:41:e4:33:c7:03:f7:5f:aa:68:
                    58:eb:a7:4d:cd:1c:24:3c:60:25:58:15:67:39:5c:
                    05:ca:16:b4:fb:52:ec:39:d2:7c:63:eb:56:88:2b:
                    33:ed:1c:ac:fa:97:b7:52:97:e5:0b:3c:e2:1b:b8:
                    d9:0c:84:80:ba:aa:05:c8:3e:d9:13:f1:5a:17:56:
                    ef:c2:f9:e4:c2:57:30:52:73:fd:44:53:4e:bb:86:
                    05:96:9e:90:18:b1:65:0a:58:c0:59:29:d4:4c:da:
                    fc:3a:38:b9:82:6d:e7:e6:1e:91:87:7e:2e:35:79:
                    03:70:d6:f7:c9:9f:05:3a:f2:d2:88:4e:e9:50:fc:
                    58:c2:af:2c:b4:fc:db:71:7e:2b:b1:cf:53:e0:57:
                    6e:f5:d4:91:2d:e4:98:03:a2:16:19:d9:89:71:02:
                    54:8e:f2:13:72:e4:b3:b7:3c:aa:c2:0a:d7:57:8c:
                    d5:b5:a9:06:25:e0:4f:9e:09:4c:a1:d5:ca:d0:4b:
                    bd:3a:99:aa:8c:65:09:07:9d:01:09:f3:49:5f:0d:
                    52:b0:e4:35:2a:50:52:06:e4:1d:fb:45:e9:36:d3:
                    d8:9f
                Exponent: 65537 (0x10001)
        X509v3 extensions:
            X509v3 Basic Constraints: 
                CA:FALSE
            X509v3 Subject Key Identifier: 
                2D:D3:9B:FC:D2:19:AE:10:D5:39:74:2A:5D:59:EC:4D:04:BA:55:13
            X509v3 Authority Key Identifier: 
                keyid:82:2D:BF:DF:BB:E1:68:00:4B:34:74:4F:38:BC:8E:DB:D0:B5:FF:32
                DirName:/CN=rasvpn
                serial:18:DB:8A:89:FC:76:DC:99:27:ED:F7:97:9E:BB:3E:DE:32:0E:87:2A
            X509v3 Extended Key Usage: 
                TLS Web Client Authentication
            X509v3 Key Usage: 
                Digital Signature
    Signature Algorithm: sha256WithRSAEncryption
    Signature Value:
        4c:5e:58:dc:0f:c4:32:a1:46:33:b0:b5:b6:55:76:19:20:30:
        42:2c:4d:12:62:2a:3f:c1:bb:ec:88:e5:4e:d0:1e:26:75:b5:
        29:ae:8c:14:35:a2:a1:64:a4:bb:f6:01:20:32:7b:bf:52:08:
        e9:c7:e3:ad:2a:58:62:85:e2:54:04:df:d9:be:78:53:3e:ff:
        89:36:19:00:e6:88:ae:f2:05:cf:c8:3b:3e:45:61:05:1a:85:
        1b:3b:1b:41:5c:2e:bc:b7:d2:f3:0b:68:51:43:8a:25:52:3c:
        71:56:f2:22:f5:c2:3f:ea:f7:ec:42:27:ca:10:31:16:f1:92:
        5b:d9:d2:bb:bc:7d:cd:57:b1:c4:39:79:e5:b3:2f:ae:ea:f2:
        d3:4f:88:f9:7f:b4:00:33:d9:84:8f:b6:38:e1:73:0a:73:eb:
        be:60:c3:5c:08:8b:da:fe:39:4a:e7:71:ce:45:33:88:15:83:
        27:65:a0:72:82:a2:27:e4:35:7e:1a:a9:c0:46:72:5c:59:4f:
        f7:37:7a:05:57:e8:d7:9c:92:85:65:25:76:eb:b5:09:8d:b0:
        5c:4c:7d:3d:07:28:6f:e0:28:39:7c:d3:d1:ab:1d:fa:64:a3:
        5f:87:65:11:32:b6:c9:73:0f:2f:20:0c:6f:06:84:be:dc:f2:
        7a:a3:85:2a
-----BEGIN CERTIFICATE-----
MIIDSzCCAjOgAwIBAgIRANxf3Jw2QTk1H11vST/tVfYwDQYJKoZIhvcNAQELBQAw
ETEPMA0GA1UEAwwGcmFzdnBuMB4XDTI1MTEyMjE0MzMwMFoXDTI4MDIyNTE0MzMw
MFowETEPMA0GA1UEAwwGY2xpZW50MIIBIjANBgkqhkiG9w0BAQEFAAOCAQ8AMIIB
CgKCAQEAsvrPK75h1XGK0PT1JV+pEPz/afQ6OfmkOTdl2h1aN4WLBEpB5DPHA/df
qmhY66dNzRwkPGAlWBVnOVwFyha0+1LsOdJ8Y+tWiCsz7Rys+pe3UpflCzziG7jZ
DISAuqoFyD7ZE/FaF1bvwvnkwlcwUnP9RFNOu4YFlp6QGLFlCljAWSnUTNr8Oji5
gm3n5h6Rh34uNXkDcNb3yZ8FOvLSiE7pUPxYwq8stPzbcX4rsc9T4Fdu9dSRLeSY
A6IWGdmJcQJUjvITcuSztzyqwgrXV4zVtakGJeBPnglModXK0Eu9OpmqjGUJB50B
CfNJXw1SsOQ1KlBSBuQd+0XpNtPYnwIDAQABo4GdMIGaMAkGA1UdEwQCMAAwHQYD
VR0OBBYEFC3Tm/zSGa4Q1Tl0Kl1Z7E0EulUTMEwGA1UdIwRFMEOAFIItv9+74WgA
SzR0Tzi8jtvQtf8yoRWkEzARMQ8wDQYDVQQDDAZyYXN2cG6CFBjbion8dtyZJ+33
l567Pt4yDocqMBMGA1UdJQQMMAoGCCsGAQUFBwMCMAsGA1UdDwQEAwIHgDANBgkq
hkiG9w0BAQsFAAOCAQEATF5Y3A/EMqFGM7C1tlV2GSAwQixNEmIqP8G77IjlTtAe
JnW1Ka6MFDWioWSku/YBIDJ7v1II6cfjrSpYYoXiVATf2b54Uz7/iTYZAOaIrvIF
z8g7PkVhBRqFGzsbQVwuvLfS8wtoUUOKJVI8cVbyIvXCP+r37EInyhAxFvGSW9nS
u7x9zVexxDl55bMvrury00+I+X+0ADPZhI+2OOFzCnPrvmDDXAiL2v45SudxzkUz
iBWDJ2WgcoKiJ+Q1fhqpwEZyXFlP9zd6BVfo15yShWUlduu1CY2wXEx9PQcob+Ao
OXzT0asd+mSjX4dlETK2yXMPLyAMbwaEvtzyeqOFKg==
-----END CERTIFICATE-----
